; Function Attrs: nounwind uwtable
define dso_local ptr @rhash_get_name(i32 noundef %0) local_unnamed_addr #0 {
  %2 = tail call ptr @rhash_info_by_id(i32 noundef %0) #15
  %.not = icmp eq ptr %2, null
  br i1 %.not, label %6, label %3

3:                                                ; preds = %1
  %4 = getelementptr inbounds nuw i8, ptr %2, i64 16
  %5 = load ptr, ptr %4, align 8, !tbaa !41
  br label %6

6:                                                ; preds = %1, %3
  %7 = phi ptr [ %5, %3 ], [ null, %1 ]
  ret ptr %7
}